(dp0
Vfullscreen_mode
p1
I0
sVorientation
p2
Vhorizontal
p3
sVfocus
p4
(lp5
I94602065294352
aI94602065307280
aI94602065284592
asVsticky
p6
I00
sVurgent
p7
I00
sVlast_split_layout
p8
Vsplith
p9
sVfloating
p10
Vauto_off
p11
sVborder
p12
Vnormal
p13
sVid
p14
I94602065283056
sVcurrent_border_width
p15
I-1
sVlayout
p16
Vsplith
p17
sVpercent
p18
NsVworkspace_layout
p19
Vdefault
p20
sVwindow
p21
NsVnodes
p22
(lp23
(dp24
Vfullscreen_mode
p25
I0
sVorientation
p26
Vnone
p27
sVfocus
p28
(lp29
I94602065287584
asVsticky
p30
I00
sVurgent
p31
I00
sVlast_split_layout
p32
Vsplith
p33
sVfloating
p34
Vauto_off
p35
sVborder
p36
Vnormal
p37
sVid
p38
I94602065284592
sVcurrent_border_width
p39
I-1
sVlayout
p40
Voutput
p41
sVpercent
p42
F0.3333333333333333
sVworkspace_layout
p43
Vdefault
p44
sVwindow
p45
NsVnodes
p46
(lp47
(dp48
Vfullscreen_mode
p49
I0
sVorientation
p50
Vhorizontal
p51
sVfocus
p52
(lp53
I94602065290704
asVsticky
p54
I00
sVurgent
p55
I00
sVlast_split_layout
p56
Vsplith
p57
sVfloating
p58
Vauto_off
p59
sVborder
p60
Vnormal
p61
sVid
p62
I94602065287584
sVcurrent_border_width
p63
I-1
sVlayout
p64
Vsplith
p65
sVpercent
p66
NsVworkspace_layout
p67
Vdefault
p68
sVwindow
p69
NsVnodes
p70
(lp71
(dp72
Vfullscreen_mode
p73
I1
sVorientation
p74
Vnone
p75
sVfocus
p76
(lp77
sVsticky
p78
I00
sVurgent
p79
I00
sVnum
p80
I-1
sVlast_split_layout
p81
Vsplith
p82
sVfloating
p83
Vauto_off
p84
sVborder
p85
Vnormal
p86
sVid
p87
I94602065290704
sVcurrent_border_width
p88
I-1
sVlayout
p89
Vsplith
p90
sVpercent
p91
NsVworkspace_layout
p92
Vdefault
p93
sVwindow
p94
NsVnodes
p95
(lp96
sVtype
p97
Vworkspace
p98
sVdeco_rect
p99
(dp100
Vy
p101
I0
sVx
p102
I0
sVheight
p103
I0
sVwidth
p104
I0
ssVswallows
p105
(lp106
sVfocused
p107
I00
sVscratchpad_state
p108
Vnone
p109
sVrect
p110
(dp111
g101
I0
sg102
I0
sVheight
p112
I0
sVwidth
p113
I0
ssVwindow_rect
p114
(dp115
g101
I0
sg102
I0
sVheight
p116
I0
sVwidth
p117
I0
ssVname
p118
V__i3_scratch
p119
sVgeometry
p120
(dp121
g101
I0
sg102
I0
sVheight
p122
I0
sVwidth
p123
I0
ssVgaps
p124
(dp125
Vright
p126
I0
sVouter
p127
I0
sVbottom
p128
I0
sVtop
p129
I0
sVinner
p130
I0
sVleft
p131
I0
ssVfloating_nodes
p132
(lp133
sVoutput
p134
V__i3
p135
sasVtype
p136
Vcon
p137
sVdeco_rect
p138
(dp139
g101
I0
sg102
I0
sVheight
p140
I0
sVwidth
p141
I0
ssVswallows
p142
(lp143
sVfocused
p144
I00
sVscratchpad_state
p145
Vnone
p146
sVrect
p147
(dp148
g101
I0
sg102
I0
sVheight
p149
I0
sVwidth
p150
I0
ssVwindow_rect
p151
(dp152
g101
I0
sg102
I0
sVheight
p153
I0
sVwidth
p154
I0
ssVname
p155
Vcontent
p156
sVgeometry
p157
(dp158
g101
I0
sg102
I0
sVheight
p159
I0
sVwidth
p160
I0
ssVfloating_nodes
p161
(lp162
sVoutput
p163
V__i3
p164
sasVtype
p165
Voutput
p166
sVdeco_rect
p167
(dp168
g101
I0
sg102
I0
sVheight
p169
I0
sVwidth
p170
I0
ssVswallows
p171
(lp172
sVfocused
p173
I00
sVscratchpad_state
p174
Vnone
p175
sVrect
p176
(dp177
g101
I0
sg102
I0
sVheight
p178
I37800
sVwidth
p179
I13440
ssVwindow_rect
p180
(dp181
g101
I0
sg102
I0
sVheight
p182
I0
sVwidth
p183
I0
ssVname
p184
V__i3
p185
sVgeometry
p186
(dp187
g101
I0
sg102
I0
sVheight
p188
I0
sVwidth
p189
I0
ssVfloating_nodes
p190
(lp191
sa(dp192
Vfullscreen_mode
p193
I0
sVorientation
p194
Vnone
p195
sVfocus
p196
(lp197
I94602065313760
aI94602065310496
aI94602065317024
asVsticky
p198
I00
sVurgent
p199
I00
sVlast_split_layout
p200
Vsplith
p201
sVfloating
p202
Vauto_off
p203
sVborder
p204
Vnormal
p205
sVid
p206
I94602065307280
sVcurrent_border_width
p207
I-1
sVlayout
p208
Voutput
p209
sVpercent
p210
F0.3333333333333333
sVworkspace_layout
p211
Vdefault
p212
sVwindow
p213
NsVnodes
p214
(lp215
(dp216
Vfullscreen_mode
p217
I0
sVorientation
p218
Vnone
p219
sVfocus
p220
(lp221
I94602065454512
asVsticky
p222
I00
sVurgent
p223
I00
sVlast_split_layout
p224
Vsplith
p225
sVfloating
p226
Vauto_off
p227
sVborder
p228
Vnormal
p229
sVid
p230
I94602065310496
sVcurrent_border_width
p231
I-1
sVlayout
p232
Vdockarea
p233
sVpercent
p234
NsVworkspace_layout
p235
Vdefault
p236
sVwindow
p237
NsVnodes
p238
(lp239
(dp240
Vwindow_properties
p241
(dp242
Vinstance
p243
Vi3bar
p244
sVtransient_for
p245
NsVclass
p246
Vi3bar
p247
sVtitle
p248
Vi3bar for output HDMI-0
p249
ssVfullscreen_mode
p250
I0
sVorientation
p251
Vnone
p252
sVprocess
p253
S'i3bar'
p254
sVfocus
p255
(lp256
sVsticky
p257
I00
sVurgent
p258
I00
sVlast_split_layout
p259
Vsplith
p260
sVfloating
p261
Vauto_off
p262
sVborder
p263
Vnormal
p264
sVid
p265
I94602065454512
sVcurrent_border_width
p266
I2
sVlayout
p267
Vsplith
p268
sVpercent
p269
F1.0
sVworkspace_layout
p270
Vdefault
p271
sVwindow
p272
I6291504
sVnodes
p273
(lp274
sVtype
p275
Vcon
p276
sVdeco_rect
p277
(dp278
g101
I0
sg102
I0
sVheight
p279
I0
sVwidth
p280
I0
ssVswallows
p281
(lp282
sVfocused
p283
I00
sVscratchpad_state
p284
Vnone
p285
sVrect
p286
(dp287
g101
I0
sg102
I0
sVheight
p288
I18
sVwidth
p289
I1920
ssVwindow_rect
p290
(dp291
g101
I0
sg102
I0
sVheight
p292
I18
sVwidth
p293
I1920
ssVname
p294
Vi3bar for output HDMI-0
p295
sVgeometry
p296
(dp297
g101
I1062
sg102
I0
sVheight
p298
I18
sVwidth
p299
I1920
ssVfloating_nodes
p300
(lp301
sVoutput
p302
VHDMI-0
p303
sasVtype
p304
Vdockarea
p305
sVdeco_rect
p306
(dp307
g101
I0
sg102
I0
sVheight
p308
I0
sVwidth
p309
I0
ssVswallows
p310
(lp311
(dp312
Vdock
p313
I2
sVinsert_where
p314
I2
sasVfocused
p315
I00
sVscratchpad_state
p316
Vnone
p317
sVrect
p318
(dp319
g101
I0
sg102
I0
sVheight
p320
I18
sVwidth
p321
I1920
ssVwindow_rect
p322
(dp323
g101
I0
sg102
I0
sVheight
p324
I0
sVwidth
p325
I0
ssVname
p326
Vtopdock
p327
sVgeometry
p328
(dp329
g101
I0
sg102
I0
sVheight
p330
I0
sVwidth
p331
I0
ssVfloating_nodes
p332
(lp333
sVoutput
p334
VHDMI-0
p335
sa(dp336
Vfullscreen_mode
p337
I0
sVorientation
p338
Vhorizontal
p339
sVfocus
p340
(lp341
I94602065385408
aI94602065242352
aI94602065591600
aI94602065395136
asVsticky
p342
I00
sVurgent
p343
I00
sVlast_split_layout
p344
Vsplith
p345
sVfloating
p346
Vauto_off
p347
sVborder
p348
Vnormal
p349
sVid
p350
I94602065313760
sVcurrent_border_width
p351
I-1
sVlayout
p352
Vsplith
p353
sVpercent
p354
NsVworkspace_layout
p355
Vdefault
p356
sVwindow
p357
NsVnodes
p358
(lp359
(dp360
Vfullscreen_mode
p361
I0
sVorientation
p362
Vhorizontal
p363
sVfocus
p364
(lp365
I94602065388656
asVsticky
p366
I00
sVurgent
p367
I00
sVnum
p368
I2
sVlast_split_layout
p369
Vsplith
p370
sVfloating
p371
Vauto_off
p372
sVborder
p373
Vnormal
p374
sVid
p375
I94602065591600
sVcurrent_border_width
p376
I-1
sVlayout
p377
Vsplith
p378
sVpercent
p379
F0.25
sVworkspace_layout
p380
Vdefault
p381
sVwindow
p382
NsVnodes
p383
(lp384
(dp385
Vwindow_properties
p386
(dp387
Vinstance
p388
Vurxvt
p389
sVtransient_for
p390
NsVclass
p391
VURxvt
p392
sVtitle
p393
Vdburian: bluetoothctl
p394
ssVfullscreen_mode
p395
I0
sVorientation
p396
Vnone
p397
sg253
S'urxvt'
p398
sVfocus
p399
(lp400
sVsticky
p401
I00
sVurgent
p402
I00
sVlast_split_layout
p403
Vsplith
p404
sVfloating
p405
Vauto_off
p406
sVborder
p407
Vpixel
p408
sVid
p409
I94602065388656
sVcurrent_border_width
p410
I0
sVlayout
p411
Vsplith
p412
sVpercent
p413
F1.0
sVworkspace_layout
p414
Vdefault
p415
sVwindow
p416
I46137354
sVnodes
p417
(lp418
sVtype
p419
Vcon
p420
sVdeco_rect
p421
(dp422
g101
I0
sg102
I0
sVheight
p423
I0
sVwidth
p424
I0
ssVswallows
p425
(lp426
sVfocused
p427
I00
sVscratchpad_state
p428
Vnone
p429
sVrect
p430
(dp431
g101
I26
sg102
I8
sVheight
p432
I1046
sVwidth
p433
I1904
ssVwindow_rect
p434
(dp435
g101
I0
sg102
I0
sVheight
p436
I1046
sVwidth
p437
I1904
ssVname
p438
Vdburian: bluetoothctl
p439
sVgeometry
p440
(dp441
g101
I0
sg102
I0
sVheight
p442
I458
sVwidth
p443
I746
ssVfloating_nodes
p444
(lp445
sVoutput
p446
VHDMI-0
p447
sasVtype
p448
Vworkspace
p449
sVdeco_rect
p450
(dp451
g101
I0
sg102
I0
sVheight
p452
I0
sVwidth
p453
I0
ssVswallows
p454
(lp455
sVfocused
p456
I00
sVscratchpad_state
p457
Vnone
p458
sVrect
p459
(dp460
g101
I18
sg102
I0
sVheight
p461
I1062
sVwidth
p462
I1920
ssVwindow_rect
p463
(dp464
g101
I0
sg102
I0
sVheight
p465
I0
sVwidth
p466
I0
ssVname
p467
V2:Desktop
p468
sVgeometry
p469
(dp470
g101
I0
sg102
I0
sVheight
p471
I0
sVwidth
p472
I0
ssVgaps
p473
(dp474
Vright
p475
I0
sVouter
p476
I0
sVbottom
p477
I0
sVtop
p478
I0
sVinner
p479
I0
sVleft
p480
I0
ssVfloating_nodes
p481
(lp482
sVoutput
p483
VHDMI-0
p484
sa(dp485
Vfullscreen_mode
p486
I0
sVorientation
p487
Vhorizontal
p488
sVfocus
p489
(lp490
I94602065571152
aI94602065213952
asVsticky
p491
I00
sVurgent
p492
I00
sVnum
p493
I3
sVlast_split_layout
p494
Vsplith
p495
sVfloating
p496
Vauto_off
p497
sVborder
p498
Vnormal
p499
sVid
p500
I94602065242352
sVcurrent_border_width
p501
I-1
sVlayout
p502
Vsplith
p503
sVpercent
p504
F0.25
sVworkspace_layout
p505
Vdefault
p506
sVwindow
p507
NsVnodes
p508
(lp509
(dp510
Vwindow_properties
p511
(dp512
Vinstance
p513
Vurxvt
p514
sVtransient_for
p515
NsVclass
p516
VURxvt
p517
sVtitle
p518
Vmedia-controls.js (~/Documents/bak/ivis-core/client/src/lib) - NVIM
p519
ssVfullscreen_mode
p520
I0
sVorientation
p521
Vnone
p522
sg253
S'urxvt'
p523
sVfocus
p524
(lp525
sVsticky
p526
I00
sVurgent
p527
I00
sVlast_split_layout
p528
Vsplith
p529
sVfloating
p530
Vauto_off
p531
sVborder
p532
Vpixel
p533
sVid
p534
I94602065213952
sVcurrent_border_width
p535
I0
sVlayout
p536
Vsplith
p537
sVpercent
p538
F0.5
sVworkspace_layout
p539
Vdefault
p540
sVwindow
p541
I14680074
sVnodes
p542
(lp543
sVtype
p544
Vcon
p545
sVdeco_rect
p546
(dp547
g101
I0
sg102
I0
sVheight
p548
I0
sVwidth
p549
I0
ssVswallows
p550
(lp551
sVfocused
p552
I00
sVscratchpad_state
p553
Vnone
p554
sVrect
p555
(dp556
g101
I26
sg102
I8
sVheight
p557
I1046
sVwidth
p558
I948
ssVwindow_rect
p559
(dp560
g101
I0
sg102
I0
sVheight
p561
I1046
sVwidth
p562
I948
ssVname
p563
Vmedia-controls.js (~/Documents/bak/ivis-core/client/src/lib) - NVIM
p564
sVgeometry
p565
(dp566
g101
I0
sg102
I0
sVheight
p567
I458
sVwidth
p568
I746
ssVfloating_nodes
p569
(lp570
sVoutput
p571
VHDMI-0
p572
sa(dp573
Vwindow_properties
p574
(dp575
Vinstance
p576
Vurxvt
p577
sVtransient_for
p578
NsVclass
p579
VURxvt
p580
sVtitle
p581
V~/Documents/bak/ivis-core
p582
ssVfullscreen_mode
p583
I0
sVorientation
p584
Vnone
p585
sg253
S'urxvt'
p586
sVfocus
p587
(lp588
sVsticky
p589
I00
sVurgent
p590
I00
sVlast_split_layout
p591
Vsplith
p592
sVfloating
p593
Vauto_off
p594
sVborder
p595
Vpixel
p596
sVid
p597
I94602065571152
sVcurrent_border_width
p598
I0
sVlayout
p599
Vsplith
p600
sVpercent
p601
F0.5
sVworkspace_layout
p602
Vdefault
p603
sVwindow
p604
I48234506
sVnodes
p605
(lp606
sVtype
p607
Vcon
p608
sVdeco_rect
p609
(dp610
g101
I0
sg102
I0
sVheight
p611
I0
sVwidth
p612
I0
ssVswallows
p613
(lp614
sVfocused
p615
I00
sVscratchpad_state
p616
Vnone
p617
sVrect
p618
(dp619
g101
I26
sg102
I964
sVheight
p620
I1046
sVwidth
p621
I948
ssVwindow_rect
p622
(dp623
g101
I0
sg102
I0
sVheight
p624
I1046
sVwidth
p625
I948
ssVname
p626
V~/Documents/bak/ivis-core
p627
sVgeometry
p628
(dp629
g101
I0
sg102
I0
sVheight
p630
I458
sVwidth
p631
I746
ssVfloating_nodes
p632
(lp633
sVoutput
p634
VHDMI-0
p635
sasVtype
p636
Vworkspace
p637
sVdeco_rect
p638
(dp639
g101
I0
sg102
I0
sVheight
p640
I0
sVwidth
p641
I0
ssVswallows
p642
(lp643
sVfocused
p644
I00
sVscratchpad_state
p645
Vnone
p646
sVrect
p647
(dp648
g101
I18
sg102
I0
sVheight
p649
I1062
sVwidth
p650
I1920
ssVwindow_rect
p651
(dp652
g101
I0
sg102
I0
sVheight
p653
I0
sVwidth
p654
I0
ssVname
p655
V3:Work
p656
sVgeometry
p657
(dp658
g101
I0
sg102
I0
sVheight
p659
I0
sVwidth
p660
I0
ssVgaps
p661
(dp662
Vright
p663
I0
sVouter
p664
I0
sVbottom
p665
I0
sVtop
p666
I0
sVinner
p667
I0
sVleft
p668
I0
ssVfloating_nodes
p669
(lp670
sVoutput
p671
VHDMI-0
p672
sa(dp673
Vfullscreen_mode
p674
I1
sVorientation
p675
Vhorizontal
p676
sVfocus
p677
(lp678
I94602065385888
asVsticky
p679
I00
sVurgent
p680
I00
sVnum
p681
I4
sVlast_split_layout
p682
Vsplith
p683
sVfloating
p684
Vauto_off
p685
sVborder
p686
Vnormal
p687
sVid
p688
I94602065385408
sVcurrent_border_width
p689
I-1
sVlayout
p690
Vsplith
p691
sVpercent
p692
NsVworkspace_layout
p693
Vdefault
p694
sVwindow
p695
NsVnodes
p696
(lp697
(dp698
Vwindow_properties
p699
(dp700
Vinstance
p701
Vqutebrowser
p702
sVtransient_for
p703
NsVclass
p704
Vqutebrowser
p705
sVtitle
p706
Vziberna/i3-py: Python based tools for i3 users and developers - qutebrowser
p707
ssVfullscreen_mode
p708
I1
sVorientation
p709
Vnone
p710
sg253
S'qutebrowser'
p711
sVfocus
p712
(lp713
sVsticky
p714
I00
sVurgent
p715
I00
sVlast_split_layout
p716
Vsplith
p717
sVfloating
p718
Vauto_off
p719
sVborder
p720
Vpixel
p721
sVid
p722
I94602065385888
sVcurrent_border_width
p723
I0
sVlayout
p724
Vsplith
p725
sVpercent
p726
F1.0
sVworkspace_layout
p727
Vdefault
p728
sVwindow
p729
I50331663
sVnodes
p730
(lp731
sVtype
p732
Vcon
p733
sVdeco_rect
p734
(dp735
g101
I0
sg102
I0
sVheight
p736
I0
sVwidth
p737
I0
ssVswallows
p738
(lp739
sVfocused
p740
I00
sVscratchpad_state
p741
Vnone
p742
sVrect
p743
(dp744
g101
I0
sg102
I0
sVheight
p745
I1080
sVwidth
p746
I1920
ssVwindow_rect
p747
(dp748
g101
I0
sg102
I0
sVheight
p749
I1080
sVwidth
p750
I1920
ssVname
p751
Vziberna/i3-py: Python based tools for i3 users and developers - qutebrowser
p752
sVgeometry
p753
(dp754
g101
I26
sg102
I256
sVheight
p755
I1016
sVwidth
p756
I1664
ssVfloating_nodes
p757
(lp758
sVoutput
p759
VHDMI-0
p760
sasVtype
p761
Vworkspace
p762
sVdeco_rect
p763
(dp764
g101
I0
sg102
I0
sVheight
p765
I0
sVwidth
p766
I0
ssVswallows
p767
(lp768
sVfocused
p769
I00
sVscratchpad_state
p770
Vnone
p771
sVrect
p772
(dp773
g101
I18
sg102
I0
sVheight
p774
I1062
sVwidth
p775
I1920
ssVwindow_rect
p776
(dp777
g101
I0
sg102
I0
sVheight
p778
I0
sVwidth
p779
I0
ssVname
p780
V4:Web
p781
sVgeometry
p782
(dp783
g101
I0
sg102
I0
sVheight
p784
I0
sVwidth
p785
I0
ssVgaps
p786
(dp787
Vright
p788
I0
sVouter
p789
I0
sVbottom
p790
I0
sVtop
p791
I0
sVinner
p792
I0
sVleft
p793
I0
ssVfloating_nodes
p794
(lp795
sVoutput
p796
VHDMI-0
p797
sa(dp798
Vfullscreen_mode
p799
I0
sVorientation
p800
Vhorizontal
p801
sVfocus
p802
(lp803
I94602065453264
asVsticky
p804
I00
sVurgent
p805
I00
sVnum
p806
I5
sVlast_split_layout
p807
Vsplith
p808
sVfloating
p809
Vauto_off
p810
sVborder
p811
Vnormal
p812
sVid
p813
I94602065395136
sVcurrent_border_width
p814
I-1
sVlayout
p815
Vsplith
p816
sVpercent
p817
F0.5
sVworkspace_layout
p818
Vdefault
p819
sVwindow
p820
NsVnodes
p821
(lp822
(dp823
Vwindow_properties
p824
(dp825
Vinstance
p826
Vvivaldi-stable
p827
sVtransient_for
p828
NsVwindow_role
p829
Vbrowser
p830
sVclass
p831
VVivaldi-stable
p832
sVtitle
p833
V(1) DESIREE CHORDS by Sean Rowe @ Ultimate-Guitar.Com - Vivaldi
p834
ssVfullscreen_mode
p835
I0
sVorientation
p836
Vnone
p837
sg253
S'vivaldi-stable'
p838
sVfocus
p839
(lp840
sVsticky
p841
I00
sVurgent
p842
I00
sVlast_split_layout
p843
Vsplith
p844
sVfloating
p845
Vauto_off
p846
sVborder
p847
Vpixel
p848
sVid
p849
I94602065453264
sVcurrent_border_width
p850
I0
sVlayout
p851
Vsplith
p852
sVpercent
p853
F1.0
sVworkspace_layout
p854
Vdefault
p855
sVwindow
p856
I20971521
sVnodes
p857
(lp858
sVtype
p859
Vcon
p860
sVdeco_rect
p861
(dp862
g101
I0
sg102
I0
sVheight
p863
I0
sVwidth
p864
I0
ssVswallows
p865
(lp866
sVfocused
p867
I00
sVscratchpad_state
p868
Vnone
p869
sVrect
p870
(dp871
g101
I26
sg102
I8
sVheight
p872
I1046
sVwidth
p873
I1904
ssVwindow_rect
p874
(dp875
g101
I0
sg102
I0
sVheight
p876
I1046
sVwidth
p877
I1904
ssVname
p878
V(1) DESIREE CHORDS by Sean Rowe @ Ultimate-Guitar.Com - Vivaldi
p879
sVgeometry
p880
(dp881
g101
I26
sg102
I8
sVheight
p882
I1046
sVwidth
p883
I1904
ssVfloating_nodes
p884
(lp885
sVoutput
p886
VHDMI-0
p887
sasVtype
p888
Vworkspace
p889
sVdeco_rect
p890
(dp891
g101
I0
sg102
I0
sVheight
p892
I0
sVwidth
p893
I0
ssVswallows
p894
(lp895
sVfocused
p896
I00
sVscratchpad_state
p897
Vnone
p898
sVrect
p899
(dp900
g101
I18
sg102
I0
sVheight
p901
I1062
sVwidth
p902
I1920
ssVwindow_rect
p903
(dp904
g101
I0
sg102
I0
sVheight
p905
I0
sVwidth
p906
I0
ssVname
p907
V5:Surfin'
p908
sVgeometry
p909
(dp910
g101
I0
sg102
I0
sVheight
p911
I0
sVwidth
p912
I0
ssVgaps
p913
(dp914
Vright
p915
I0
sVouter
p916
I0
sVbottom
p917
I0
sVtop
p918
I0
sVinner
p919
I0
sVleft
p920
I0
ssVfloating_nodes
p921
(lp922
sVoutput
p923
VHDMI-0
p924
sasVtype
p925
Vcon
p926
sVdeco_rect
p927
(dp928
g101
I0
sg102
I0
sVheight
p929
I0
sVwidth
p930
I0
ssVswallows
p931
(lp932
sVfocused
p933
I00
sVscratchpad_state
p934
Vnone
p935
sVrect
p936
(dp937
g101
I18
sg102
I0
sVheight
p938
I1062
sVwidth
p939
I1920
ssVwindow_rect
p940
(dp941
g101
I0
sg102
I0
sVheight
p942
I0
sVwidth
p943
I0
ssVname
p944
Vcontent
p945
sVgeometry
p946
(dp947
g101
I0
sg102
I0
sVheight
p948
I0
sVwidth
p949
I0
ssVfloating_nodes
p950
(lp951
sVoutput
p952
VHDMI-0
p953
sa(dp954
Vfullscreen_mode
p955
I0
sVorientation
p956
Vnone
p957
sVfocus
p958
(lp959
sVsticky
p960
I00
sVurgent
p961
I00
sVlast_split_layout
p962
Vsplith
p963
sVfloating
p964
Vauto_off
p965
sVborder
p966
Vnormal
p967
sVid
p968
I94602065317024
sVcurrent_border_width
p969
I-1
sVlayout
p970
Vdockarea
p971
sVpercent
p972
NsVworkspace_layout
p973
Vdefault
p974
sVwindow
p975
NsVnodes
p976
(lp977
sVtype
p978
Vdockarea
p979
sVdeco_rect
p980
(dp981
g101
I0
sg102
I0
sVheight
p982
I0
sVwidth
p983
I0
ssVswallows
p984
(lp985
(dp986
Vdock
p987
I3
sVinsert_where
p988
I2
sasVfocused
p989
I00
sVscratchpad_state
p990
Vnone
p991
sVrect
p992
(dp993
g101
I1080
sg102
I0
sVheight
p994
I0
sVwidth
p995
I1920
ssVwindow_rect
p996
(dp997
g101
I0
sg102
I0
sVheight
p998
I0
sVwidth
p999
I0
ssVname
p1000
Vbottomdock
p1001
sVgeometry
p1002
(dp1003
g101
I0
sg102
I0
sVheight
p1004
I0
sVwidth
p1005
I0
ssVfloating_nodes
p1006
(lp1007
sVoutput
p1008
VHDMI-0
p1009
sasVtype
p1010
Voutput
p1011
sVdeco_rect
p1012
(dp1013
g101
I0
sg102
I0
sVheight
p1014
I0
sVwidth
p1015
I0
ssVswallows
p1016
(lp1017
sVfocused
p1018
I00
sVscratchpad_state
p1019
Vnone
p1020
sVrect
p1021
(dp1022
g101
I0
sg102
I0
sVheight
p1023
I1080
sVwidth
p1024
I1920
ssVwindow_rect
p1025
(dp1026
g101
I0
sg102
I0
sVheight
p1027
I0
sVwidth
p1028
I0
ssVname
p1029
VHDMI-0
p1030
sVgeometry
p1031
(dp1032
g101
I0
sg102
I0
sVheight
p1033
I0
sVwidth
p1034
I0
ssVfloating_nodes
p1035
(lp1036
sa(dp1037
Vfullscreen_mode
p1038
I0
sVorientation
p1039
Vnone
p1040
sVfocus
p1041
(lp1042
I94602065300800
aI94602065297536
aI94602065304016
asVsticky
p1043
I00
sVurgent
p1044
I00
sVlast_split_layout
p1045
Vsplith
p1046
sVfloating
p1047
Vauto_off
p1048
sVborder
p1049
Vnormal
p1050
sVid
p1051
I94602065294352
sVcurrent_border_width
p1052
I-1
sVlayout
p1053
Voutput
p1054
sVpercent
p1055
F0.3333333333333333
sVworkspace_layout
p1056
Vdefault
p1057
sVwindow
p1058
NsVnodes
p1059
(lp1060
(dp1061
Vfullscreen_mode
p1062
I0
sVorientation
p1063
Vnone
p1064
sVfocus
p1065
(lp1066
I94602064553136
asVsticky
p1067
I00
sVurgent
p1068
I00
sVlast_split_layout
p1069
Vsplith
p1070
sVfloating
p1071
Vauto_off
p1072
sVborder
p1073
Vnormal
p1074
sVid
p1075
I94602065297536
sVcurrent_border_width
p1076
I-1
sVlayout
p1077
Vdockarea
p1078
sVpercent
p1079
NsVworkspace_layout
p1080
Vdefault
p1081
sVwindow
p1082
NsVnodes
p1083
(lp1084
(dp1085
Vwindow_properties
p1086
(dp1087
Vinstance
p1088
Vi3bar
p1089
sVtransient_for
p1090
NsVclass
p1091
Vi3bar
p1092
sVtitle
p1093
Vi3bar for output DP-4
p1094
ssVfullscreen_mode
p1095
I0
sVorientation
p1096
Vnone
p1097
sg253
S'i3bar'
p1098
sVfocus
p1099
(lp1100
sVsticky
p1101
I00
sVurgent
p1102
I00
sVlast_split_layout
p1103
Vsplith
p1104
sVfloating
p1105
Vauto_off
p1106
sVborder
p1107
Vnormal
p1108
sVid
p1109
I94602064553136
sVcurrent_border_width
p1110
I2
sVlayout
p1111
Vsplith
p1112
sVpercent
p1113
F1.0
sVworkspace_layout
p1114
Vdefault
p1115
sVwindow
p1116
I6291510
sVnodes
p1117
(lp1118
sVtype
p1119
Vcon
p1120
sVdeco_rect
p1121
(dp1122
g101
I0
sg102
I0
sVheight
p1123
I0
sVwidth
p1124
I0
ssVswallows
p1125
(lp1126
sVfocused
p1127
I00
sVscratchpad_state
p1128
Vnone
p1129
sVrect
p1130
(dp1131
g101
I0
sg102
I1920
sVheight
p1132
I18
sVwidth
p1133
I1680
ssVwindow_rect
p1134
(dp1135
g101
I0
sg102
I0
sVheight
p1136
I18
sVwidth
p1137
I1680
ssVname
p1138
Vi3bar for output DP-4
p1139
sVgeometry
p1140
(dp1141
g101
I1032
sg102
I1920
sVheight
p1142
I18
sVwidth
p1143
I1680
ssVfloating_nodes
p1144
(lp1145
sVoutput
p1146
VDP-4
p1147
sasVtype
p1148
Vdockarea
p1149
sVdeco_rect
p1150
(dp1151
g101
I0
sg102
I0
sVheight
p1152
I0
sVwidth
p1153
I0
ssVswallows
p1154
(lp1155
(dp1156
Vdock
p1157
I2
sVinsert_where
p1158
I2
sasVfocused
p1159
I00
sVscratchpad_state
p1160
Vnone
p1161
sVrect
p1162
(dp1163
g101
I0
sg102
I1920
sVheight
p1164
I18
sVwidth
p1165
I1680
ssVwindow_rect
p1166
(dp1167
g101
I0
sg102
I0
sVheight
p1168
I0
sVwidth
p1169
I0
ssVname
p1170
Vtopdock
p1171
sVgeometry
p1172
(dp1173
g101
I0
sg102
I0
sVheight
p1174
I0
sVwidth
p1175
I0
ssVfloating_nodes
p1176
(lp1177
sVoutput
p1178
VDP-4
p1179
sa(dp1180
Vfullscreen_mode
p1181
I0
sVorientation
p1182
Vhorizontal
p1183
sVfocus
p1184
(lp1185
I94602065609696
aI94602065212864
aI94602065480016
aI94602065533456
asVsticky
p1186
I00
sVurgent
p1187
I00
sVlast_split_layout
p1188
Vsplith
p1189
sVfloating
p1190
Vauto_off
p1191
sVborder
p1192
Vnormal
p1193
sVid
p1194
I94602065300800
sVcurrent_border_width
p1195
I-1
sVlayout
p1196
Vsplith
p1197
sVpercent
p1198
NsVworkspace_layout
p1199
Vdefault
p1200
sVwindow
p1201
NsVnodes
p1202
(lp1203
(dp1204
Vfullscreen_mode
p1205
I1
sVorientation
p1206
Vhorizontal
p1207
sVfocus
p1208
(lp1209
I94602065500832
asVsticky
p1210
I00
sVurgent
p1211
I00
sVnum
p1212
I1
sVlast_split_layout
p1213
Vsplith
p1214
sVfloating
p1215
Vauto_off
p1216
sVborder
p1217
Vnormal
p1218
sVid
p1219
I94602065609696
sVcurrent_border_width
p1220
I-1
sVlayout
p1221
Vsplith
p1222
sVpercent
p1223
F0.25
sVworkspace_layout
p1224
Vdefault
p1225
sVwindow
p1226
NsVnodes
p1227
(lp1228
(dp1229
Vwindow_properties
p1230
(dp1231
Vinstance
p1232
Vurxvt
p1233
sVtransient_for
p1234
NsVclass
p1235
VURxvt
p1236
sVtitle
p1237
V.scripts: i3session save
p1238
ssVfullscreen_mode
p1239
I0
sVorientation
p1240
Vnone
p1241
sg253
S'urxvt'
p1242
sVfocus
p1243
(lp1244
sVsticky
p1245
I00
sVurgent
p1246
I00
sVlast_split_layout
p1247
Vsplith
p1248
sVfloating
p1249
Vauto_off
p1250
sVborder
p1251
Vpixel
p1252
sVid
p1253
I94602065500832
sVcurrent_border_width
p1254
I0
sVlayout
p1255
Vsplith
p1256
sVpercent
p1257
F1.0
sVworkspace_layout
p1258
Vdefault
p1259
sVwindow
p1260
I52428810
sVnodes
p1261
(lp1262
sVtype
p1263
Vcon
p1264
sVdeco_rect
p1265
(dp1266
g101
I0
sg102
I0
sVheight
p1267
I0
sVwidth
p1268
I0
ssVswallows
p1269
(lp1270
sVfocused
p1271
I01
sVscratchpad_state
p1272
Vnone
p1273
sVrect
p1274
(dp1275
g101
I26
sg102
I1928
sVheight
p1276
I1016
sVwidth
p1277
I1664
ssVwindow_rect
p1278
(dp1279
g101
I0
sg102
I0
sVheight
p1280
I1016
sVwidth
p1281
I1664
ssVname
p1282
V.scripts: i3session save
p1283
sVgeometry
p1284
(dp1285
g101
I0
sg102
I0
sVheight
p1286
I458
sVwidth
p1287
I746
ssVfloating_nodes
p1288
(lp1289
sVoutput
p1290
VDP-4
p1291
sasVtype
p1292
Vworkspace
p1293
sVdeco_rect
p1294
(dp1295
g101
I0
sg102
I0
sVheight
p1296
I0
sVwidth
p1297
I0
ssVswallows
p1298
(lp1299
sVfocused
p1300
I00
sVscratchpad_state
p1301
Vnone
p1302
sVrect
p1303
(dp1304
g101
I18
sg102
I1920
sVheight
p1305
I1032
sVwidth
p1306
I1680
ssVwindow_rect
p1307
(dp1308
g101
I0
sg102
I0
sVheight
p1309
I0
sVwidth
p1310
I0
ssVname
p1311
V1:Files
p1312
sVgeometry
p1313
(dp1314
g101
I0
sg102
I0
sVheight
p1315
I0
sVwidth
p1316
I0
ssVgaps
p1317
(dp1318
Vright
p1319
I0
sVouter
p1320
I0
sVbottom
p1321
I0
sVtop
p1322
I0
sVinner
p1323
I0
sVleft
p1324
I0
ssVfloating_nodes
p1325
(lp1326
sVoutput
p1327
VDP-4
p1328
sa(dp1329
Vfullscreen_mode
p1330
I0
sVorientation
p1331
Vhorizontal
p1332
sVfocus
p1333
(lp1334
I94602065453744
asVsticky
p1335
I00
sVurgent
p1336
I00
sVnum
p1337
I6
sVlast_split_layout
p1338
Vsplith
p1339
sVfloating
p1340
Vauto_off
p1341
sVborder
p1342
Vnormal
p1343
sVid
p1344
I94602065480016
sVcurrent_border_width
p1345
I-1
sVlayout
p1346
Vsplith
p1347
sVpercent
p1348
F0.1875
sVworkspace_layout
p1349
Vdefault
p1350
sVwindow
p1351
NsVnodes
p1352
(lp1353
(dp1354
Vwindow_properties
p1355
(dp1356
Vinstance
p1357
Vvivaldi-stable
p1358
sVtransient_for
p1359
NsVwindow_role
p1360
Vbrowser
p1361
sVclass
p1362
VVivaldi-stable
p1363
sVtitle
p1364
VIVIS - Vivaldi
p1365
ssVfullscreen_mode
p1366
I0
sVorientation
p1367
Vnone
p1368
sg253
S'vivaldi-stable'
p1369
sVfocus
p1370
(lp1371
sVsticky
p1372
I00
sVurgent
p1373
I00
sVlast_split_layout
p1374
Vsplith
p1375
sVfloating
p1376
Vauto_off
p1377
sVborder
p1378
Vpixel
p1379
sVid
p1380
I94602065453744
sVcurrent_border_width
p1381
I0
sVlayout
p1382
Vsplith
p1383
sVpercent
p1384
F1.0
sVworkspace_layout
p1385
Vdefault
p1386
sVwindow
p1387
I20971527
sVnodes
p1388
(lp1389
sVtype
p1390
Vcon
p1391
sVdeco_rect
p1392
(dp1393
g101
I0
sg102
I0
sVheight
p1394
I0
sVwidth
p1395
I0
ssVswallows
p1396
(lp1397
sVfocused
p1398
I00
sVscratchpad_state
p1399
Vnone
p1400
sVrect
p1401
(dp1402
g101
I26
sg102
I1928
sVheight
p1403
I1016
sVwidth
p1404
I1664
ssVwindow_rect
p1405
(dp1406
g101
I0
sg102
I0
sVheight
p1407
I1016
sVwidth
p1408
I1664
ssVname
p1409
VIVIS - Vivaldi
p1410
sVgeometry
p1411
(dp1412
g101
I26
sg102
I1928
sVheight
p1413
I1016
sVwidth
p1414
I1664
ssVfloating_nodes
p1415
(lp1416
sVoutput
p1417
VDP-4
p1418
sasVtype
p1419
Vworkspace
p1420
sVdeco_rect
p1421
(dp1422
g101
I0
sg102
I0
sVheight
p1423
I0
sVwidth
p1424
I0
ssVswallows
p1425
(lp1426
sVfocused
p1427
I00
sVscratchpad_state
p1428
Vnone
p1429
sVrect
p1430
(dp1431
g101
I18
sg102
I1920
sVheight
p1432
I1032
sVwidth
p1433
I1680
ssVwindow_rect
p1434
(dp1435
g101
I0
sg102
I0
sVheight
p1436
I0
sVwidth
p1437
I0
ssVname
p1438
V6:6
p1439
sVgeometry
p1440
(dp1441
g101
I0
sg102
I0
sVheight
p1442
I0
sVwidth
p1443
I0
ssVgaps
p1444
(dp1445
Vright
p1446
I0
sVouter
p1447
I0
sVbottom
p1448
I0
sVtop
p1449
I0
sVinner
p1450
I0
sVleft
p1451
I0
ssVfloating_nodes
p1452
(lp1453
sVoutput
p1454
VDP-4
p1455
sa(dp1456
Vfullscreen_mode
p1457
I0
sVorientation
p1458
Vhorizontal
p1459
sVfocus
p1460
(lp1461
I94602065323584
aI94602065512736
asVsticky
p1462
I00
sVurgent
p1463
I00
sVnum
p1464
I8
sVlast_split_layout
p1465
Vsplith
p1466
sVfloating
p1467
Vauto_off
p1468
sVborder
p1469
Vnormal
p1470
sVid
p1471
I94602065212864
sVcurrent_border_width
p1472
I-1
sVlayout
p1473
Vsplith
p1474
sVpercent
p1475
F0.1875
sVworkspace_layout
p1476
Vdefault
p1477
sVwindow
p1478
NsVnodes
p1479
(lp1480
(dp1481
Vwindow_properties
p1482
(dp1483
Vinstance
p1484
Vurxvt
p1485
sVtransient_for
p1486
NsVclass
p1487
VURxvt
p1488
sVtitle
p1489
V~/Documents/bak/ivis-core
p1490
ssVfullscreen_mode
p1491
I0
sVorientation
p1492
Vnone
p1493
sg253
S'urxvt'
p1494
sVfocus
p1495
(lp1496
sVsticky
p1497
I00
sVurgent
p1498
I00
sVlast_split_layout
p1499
Vsplith
p1500
sVfloating
p1501
Vauto_off
p1502
sVborder
p1503
Vpixel
p1504
sVid
p1505
I94602065323584
sVcurrent_border_width
p1506
I0
sVlayout
p1507
Vsplith
p1508
sVpercent
p1509
F0.5
sVworkspace_layout
p1510
Vdefault
p1511
sVwindow
p1512
I16777226
sVnodes
p1513
(lp1514
sVtype
p1515
Vcon
p1516
sVdeco_rect
p1517
(dp1518
g101
I0
sg102
I0
sVheight
p1519
I0
sVwidth
p1520
I0
ssVswallows
p1521
(lp1522
sVfocused
p1523
I00
sVscratchpad_state
p1524
Vnone
p1525
sVrect
p1526
(dp1527
g101
I26
sg102
I1928
sVheight
p1528
I1016
sVwidth
p1529
I828
ssVwindow_rect
p1530
(dp1531
g101
I0
sg102
I0
sVheight
p1532
I1016
sVwidth
p1533
I828
ssVname
p1534
V~/Documents/bak/ivis-core
p1535
sVgeometry
p1536
(dp1537
g101
I0
sg102
I0
sVheight
p1538
I458
sVwidth
p1539
I746
ssVfloating_nodes
p1540
(lp1541
sVoutput
p1542
VDP-4
p1543
sa(dp1544
Vwindow_properties
p1545
(dp1546
Vinstance
p1547
Vurxvt
p1548
sVtransient_for
p1549
NsVclass
p1550
VURxvt
p1551
sVtitle
p1552
V~/Documents/bak/ivis-core
p1553
ssVfullscreen_mode
p1554
I0
sVorientation
p1555
Vnone
p1556
sg253
S'urxvt'
p1557
sVfocus
p1558
(lp1559
sVsticky
p1560
I00
sVurgent
p1561
I00
sVlast_split_layout
p1562
Vsplith
p1563
sVfloating
p1564
Vauto_off
p1565
sVborder
p1566
Vpixel
p1567
sVid
p1568
I94602065512736
sVcurrent_border_width
p1569
I0
sVlayout
p1570
Vsplith
p1571
sVpercent
p1572
F0.5
sVworkspace_layout
p1573
Vdefault
p1574
sVwindow
p1575
I18874378
sVnodes
p1576
(lp1577
sVtype
p1578
Vcon
p1579
sVdeco_rect
p1580
(dp1581
g101
I0
sg102
I0
sVheight
p1582
I0
sVwidth
p1583
I0
ssVswallows
p1584
(lp1585
sVfocused
p1586
I00
sVscratchpad_state
p1587
Vnone
p1588
sVrect
p1589
(dp1590
g101
I26
sg102
I2764
sVheight
p1591
I1016
sVwidth
p1592
I828
ssVwindow_rect
p1593
(dp1594
g101
I0
sg102
I0
sVheight
p1595
I1016
sVwidth
p1596
I828
ssVname
p1597
V~/Documents/bak/ivis-core
p1598
sVgeometry
p1599
(dp1600
g101
I0
sg102
I0
sVheight
p1601
I458
sVwidth
p1602
I746
ssVfloating_nodes
p1603
(lp1604
sVoutput
p1605
VDP-4
p1606
sasVtype
p1607
Vworkspace
p1608
sVdeco_rect
p1609
(dp1610
g101
I0
sg102
I0
sVheight
p1611
I0
sVwidth
p1612
I0
ssVswallows
p1613
(lp1614
sVfocused
p1615
I00
sVscratchpad_state
p1616
Vnone
p1617
sVrect
p1618
(dp1619
g101
I18
sg102
I1920
sVheight
p1620
I1032
sVwidth
p1621
I1680
ssVwindow_rect
p1622
(dp1623
g101
I0
sg102
I0
sVheight
p1624
I0
sVwidth
p1625
I0
ssVname
p1626
V8:Monitor
p1627
sVgeometry
p1628
(dp1629
g101
I0
sg102
I0
sVheight
p1630
I0
sVwidth
p1631
I0
ssVgaps
p1632
(dp1633
Vright
p1634
I0
sVouter
p1635
I0
sVbottom
p1636
I0
sVtop
p1637
I0
sVinner
p1638
I0
sVleft
p1639
I0
ssVfloating_nodes
p1640
(lp1641
sVoutput
p1642
VDP-4
p1643
sa(dp1644
Vfullscreen_mode
p1645
I0
sVorientation
p1646
Vhorizontal
p1647
sVfocus
p1648
(lp1649
I94602065537280
asVsticky
p1650
I00
sVurgent
p1651
I00
sVnum
p1652
I10
sVlast_split_layout
p1653
Vsplith
p1654
sVfloating
p1655
Vauto_off
p1656
sVborder
p1657
Vnormal
p1658
sVid
p1659
I94602065533456
sVcurrent_border_width
p1660
I-1
sVlayout
p1661
Vsplith
p1662
sVpercent
p1663
F0.375
sVworkspace_layout
p1664
Vdefault
p1665
sVwindow
p1666
NsVnodes
p1667
(lp1668
(dp1669
Vwindow_properties
p1670
(dp1671
Vinstance
p1672
Vspotify
p1673
sVtransient_for
p1674
NsVclass
p1675
VSpotify
p1676
sVtitle
p1677
VSpotify Premium
p1678
ssVfullscreen_mode
p1679
I1
sVorientation
p1680
Vnone
p1681
sg253
S'spotify'
p1682
sVfocus
p1683
(lp1684
sVsticky
p1685
I00
sVurgent
p1686
I00
sVlast_split_layout
p1687
Vsplith
p1688
sVfloating
p1689
Vauto_off
p1690
sVborder
p1691
Vpixel
p1692
sVid
p1693
I94602065537280
sVcurrent_border_width
p1694
I0
sVlayout
p1695
Vsplith
p1696
sVpercent
p1697
F1.0
sVworkspace_layout
p1698
Vdefault
p1699
sVwindow
p1700
I33554433
sVnodes
p1701
(lp1702
sVtype
p1703
Vcon
p1704
sVdeco_rect
p1705
(dp1706
g101
I0
sg102
I0
sVheight
p1707
I0
sVwidth
p1708
I0
ssVswallows
p1709
(lp1710
sVfocused
p1711
I00
sVscratchpad_state
p1712
Vnone
p1713
sVrect
p1714
(dp1715
g101
I0
sg102
I1920
sVheight
p1716
I1050
sVwidth
p1717
I1680
ssVwindow_rect
p1718
(dp1719
g101
I0
sg102
I0
sVheight
p1720
I1050
sVwidth
p1721
I1680
ssVname
p1722
VSpotify Premium
p1723
sVgeometry
p1724
(dp1725
g101
I0
sg102
I0
sVheight
p1726
I600
sVwidth
p1727
I800
ssVfloating_nodes
p1728
(lp1729
sVoutput
p1730
VDP-4
p1731
sasVtype
p1732
Vworkspace
p1733
sVdeco_rect
p1734
(dp1735
g101
I0
sg102
I0
sVheight
p1736
I0
sVwidth
p1737
I0
ssVswallows
p1738
(lp1739
sVfocused
p1740
I00
sVscratchpad_state
p1741
Vnone
p1742
sVrect
p1743
(dp1744
g101
I18
sg102
I1920
sVheight
p1745
I1032
sVwidth
p1746
I1680
ssVwindow_rect
p1747
(dp1748
g101
I0
sg102
I0
sVheight
p1749
I0
sVwidth
p1750
I0
ssVname
p1751
V10:Spotify
p1752
sVgeometry
p1753
(dp1754
g101
I0
sg102
I0
sVheight
p1755
I0
sVwidth
p1756
I0
ssVgaps
p1757
(dp1758
Vright
p1759
I0
sVouter
p1760
I0
sVbottom
p1761
I0
sVtop
p1762
I0
sVinner
p1763
I0
sVleft
p1764
I0
ssVfloating_nodes
p1765
(lp1766
sVoutput
p1767
VDP-4
p1768
sasVtype
p1769
Vcon
p1770
sVdeco_rect
p1771
(dp1772
g101
I0
sg102
I0
sVheight
p1773
I0
sVwidth
p1774
I0
ssVswallows
p1775
(lp1776
sVfocused
p1777
I00
sVscratchpad_state
p1778
Vnone
p1779
sVrect
p1780
(dp1781
g101
I18
sg102
I1920
sVheight
p1782
I1032
sVwidth
p1783
I1680
ssVwindow_rect
p1784
(dp1785
g101
I0
sg102
I0
sVheight
p1786
I0
sVwidth
p1787
I0
ssVname
p1788
Vcontent
p1789
sVgeometry
p1790
(dp1791
g101
I0
sg102
I0
sVheight
p1792
I0
sVwidth
p1793
I0
ssVfloating_nodes
p1794
(lp1795
sVoutput
p1796
VDP-4
p1797
sa(dp1798
Vfullscreen_mode
p1799
I0
sVorientation
p1800
Vnone
p1801
sVfocus
p1802
(lp1803
sVsticky
p1804
I00
sVurgent
p1805
I00
sVlast_split_layout
p1806
Vsplith
p1807
sVfloating
p1808
Vauto_off
p1809
sVborder
p1810
Vnormal
p1811
sVid
p1812
I94602065304016
sVcurrent_border_width
p1813
I-1
sVlayout
p1814
Vdockarea
p1815
sVpercent
p1816
NsVworkspace_layout
p1817
Vdefault
p1818
sVwindow
p1819
NsVnodes
p1820
(lp1821
sVtype
p1822
Vdockarea
p1823
sVdeco_rect
p1824
(dp1825
g101
I0
sg102
I0
sVheight
p1826
I0
sVwidth
p1827
I0
ssVswallows
p1828
(lp1829
(dp1830
Vdock
p1831
I3
sVinsert_where
p1832
I2
sasVfocused
p1833
I00
sVscratchpad_state
p1834
Vnone
p1835
sVrect
p1836
(dp1837
g101
I1050
sg102
I1920
sVheight
p1838
I0
sVwidth
p1839
I1680
ssVwindow_rect
p1840
(dp1841
g101
I0
sg102
I0
sVheight
p1842
I0
sVwidth
p1843
I0
ssVname
p1844
Vbottomdock
p1845
sVgeometry
p1846
(dp1847
g101
I0
sg102
I0
sVheight
p1848
I0
sVwidth
p1849
I0
ssVfloating_nodes
p1850
(lp1851
sVoutput
p1852
VDP-4
p1853
sasVtype
p1854
Voutput
p1855
sVdeco_rect
p1856
(dp1857
g101
I0
sg102
I0
sVheight
p1858
I0
sVwidth
p1859
I0
ssVswallows
p1860
(lp1861
sVfocused
p1862
I00
sVscratchpad_state
p1863
Vnone
p1864
sVrect
p1865
(dp1866
g101
I0
sg102
I1920
sVheight
p1867
I1050
sVwidth
p1868
I1680
ssVwindow_rect
p1869
(dp1870
g101
I0
sg102
I0
sVheight
p1871
I0
sVwidth
p1872
I0
ssVname
p1873
VDP-4
p1874
sVgeometry
p1875
(dp1876
g101
I0
sg102
I0
sVheight
p1877
I0
sVwidth
p1878
I0
ssVfloating_nodes
p1879
(lp1880
sasVtype
p1881
Vroot
p1882
sVdeco_rect
p1883
(dp1884
g101
I0
sg102
I0
sVheight
p1885
I0
sVwidth
p1886
I0
ssVswallows
p1887
(lp1888
sVfocused
p1889
I00
sVscratchpad_state
p1890
Vnone
p1891
sVrect
p1892
(dp1893
g101
I0
sg102
I0
sVheight
p1894
I1080
sVwidth
p1895
I3600
ssVwindow_rect
p1896
(dp1897
g101
I0
sg102
I0
sVheight
p1898
I0
sVwidth
p1899
I0
ssVname
p1900
Vroot
p1901
sVgeometry
p1902
(dp1903
g101
I0
sg102
I0
sVheight
p1904
I0
sVwidth
p1905
I0
ssVfloating_nodes
p1906
(lp1907
s.